; Function Attrs: mustprogress uwtable
define void @_ZN3zmq8stream_tC2EPNS_5ctx_tEji(ptr noundef nonnull align 8 dereferenceable(2112) %0, ptr noundef %1, i32 noundef %2, i32 noundef %3) unnamed_addr #0 align 2 personality ptr @__gxx_personality_v0 {
  tail call void @_ZN3zmq21routing_socket_base_tC2EPNS_5ctx_tEji(ptr noundef nonnull align 8 dereferenceable(1912) %0, ptr noundef %1, i32 noundef %2, i32 noundef %3)
  store ptr getelementptr inbounds nuw inrange(-16, 360) (i8, ptr @_ZTVN3zmq8stream_tE, i64 16), ptr %0, align 8, !tbaa !3
  %5 = getelementptr inbounds nuw i8, ptr %0, i64 1448
  store ptr getelementptr inbounds nuw inrange(-16, 16) (i8, ptr @_ZTVN3zmq8stream_tE, i64 392), ptr %5, align 8, !tbaa !3
  %6 = getelementptr inbounds nuw i8, ptr %0, i64 1464
  store ptr getelementptr inbounds nuw inrange(-16, 40) (i8, ptr @_ZTVN3zmq8stream_tE, i64 424), ptr %6, align 8, !tbaa !3
  %7 = getelementptr inbounds nuw i8, ptr %0, i64 1472
  store ptr getelementptr inbounds nuw inrange(-16, 48) (i8, ptr @_ZTVN3zmq8stream_tE, i64 480), ptr %7, align 8, !tbaa !3
  %8 = getelementptr inbounds nuw i8, ptr %0, i64 1912
  invoke void @_ZN3zmq4fq_tC1Ev(ptr noundef nonnull align 8 dereferenceable(41) %8)
          to label %9 unwind label %25

9:                                                ; preds = %4
  %10 = getelementptr inbounds nuw i8, ptr %0, i64 1960
  store i8 0, ptr %10, align 8, !tbaa !6
  %11 = getelementptr inbounds nuw i8, ptr %0, i64 1961
  store i8 0, ptr %11, align 1, !tbaa !94
  %12 = getelementptr inbounds nuw i8, ptr %0, i64 2096
  store ptr null, ptr %12, align 8, !tbaa !95
  %13 = getelementptr inbounds nuw i8, ptr %0, i64 2104
  store i8 0, ptr %13, align 8, !tbaa !96
  %14 = invoke noundef i32 @_ZN3zmq15generate_randomEv()
          to label %15 unwind label %27

15:                                               ; preds = %9
  %16 = getelementptr inbounds nuw i8, ptr %0, i64 2108
  store i32 %14, ptr %16, align 4, !tbaa !97
  %17 = getelementptr inbounds nuw i8, ptr %0, i64 332
  store i8 11, ptr %17, align 4, !tbaa !98
  %18 = getelementptr inbounds nuw i8, ptr %0, i64 395
  store i8 1, ptr %18, align 1, !tbaa !99
  %19 = getelementptr inbounds nuw i8, ptr %0, i64 1968
  %20 = invoke noundef i32 @_ZN3zmq5msg_t4initEv(ptr noundef nonnull align 8 dereferenceable(64) %19)
          to label %21 unwind label %27

21:                                               ; preds = %15
  %22 = getelementptr inbounds nuw i8, ptr %0, i64 2032
  %23 = invoke noundef i32 @_ZN3zmq5msg_t4initEv(ptr noundef nonnull align 8 dereferenceable(64) %22)
          to label %24 unwind label %27

24:                                               ; preds = %21
  ret void

25:                                               ; preds = %4
  %26 = landingpad { ptr, i32 }
          cleanup
  br label %29

27:                                               ; preds = %21, %15, %9
  %28 = landingpad { ptr, i32 }
          cleanup
  tail call void @_ZN3zmq4fq_tD1Ev(ptr noundef nonnull align 8 dereferenceable(41) %8) #18
  br label %29

29:                                               ; preds = %27, %25
  %.pn = phi { ptr, i32 } [ %28, %27 ], [ %26, %25 ]
  tail call void @_ZN3zmq21routing_socket_base_tD2Ev(ptr noundef nonnull align 8 dereferenceable(1912) %0) #18
  resume { ptr, i32 } %.pn
}